; Function Attrs: nounwind uwtable
define void @Gia_ManFromAig_rec(ptr noundef %0, ptr noundef %1, ptr noundef captures(none) %2) local_unnamed_addr #0 {
  %4 = getelementptr inbounds nuw i8, ptr %2, i64 40
  %5 = load i32, ptr %4, align 8, !tbaa !3
  %.not = icmp eq i32 %5, 0
  br i1 %.not, label %6, label %50

6:                                                ; preds = %3
  %7 = getelementptr i8, ptr %2, i64 8
  %.val = load ptr, ptr %7, align 8, !tbaa !6
  %8 = ptrtoint ptr %.val to i64
  %9 = and i64 %8, -2
  %10 = inttoptr i64 %9 to ptr
  tail call void @Gia_ManFromAig_rec(ptr noundef %0, ptr noundef %1, ptr noundef %10)
  %11 = getelementptr i8, ptr %2, i64 16
  %.val26 = load ptr, ptr %11, align 8, !tbaa !11
  %12 = ptrtoint ptr %.val26 to i64
  %13 = and i64 %12, -2
  %14 = inttoptr i64 %13 to ptr
  tail call void @Gia_ManFromAig_rec(ptr noundef %0, ptr noundef %1, ptr noundef %14)
  %.val27 = load ptr, ptr %7, align 8, !tbaa !6
  %15 = ptrtoint ptr %.val27 to i64
  %16 = and i64 %15, -2
  %17 = inttoptr i64 %16 to ptr
  %18 = getelementptr inbounds nuw i8, ptr %17, i64 40
  %19 = load i32, ptr %18, align 8, !tbaa !3
  %20 = trunc i64 %15 to i32
  %21 = and i32 %20, 1
  %22 = xor i32 %21, %19
  %.val28 = load ptr, ptr %11, align 8, !tbaa !11
  %23 = ptrtoint ptr %.val28 to i64
  %24 = and i64 %23, -2
  %25 = inttoptr i64 %24 to ptr
  %26 = getelementptr inbounds nuw i8, ptr %25, i64 40
  %27 = load i32, ptr %26, align 8, !tbaa !3
  %28 = trunc i64 %23 to i32
  %29 = and i32 %28, 1
  %30 = xor i32 %29, %27
  %31 = tail call fastcc i32 @Gia_ManAppendAnd(ptr noundef %0, i32 noundef %22, i32 noundef %30)
  store i32 %31, ptr %4, align 8, !tbaa !3
  %32 = getelementptr inbounds nuw i8, ptr %1, i64 248
  %33 = load ptr, ptr %32, align 8, !tbaa !12
  %.not23 = icmp eq ptr %33, null
  br i1 %.not23, label %50, label %Aig_ObjEquiv.exit

Aig_ObjEquiv.exit:                                ; preds = %6
  %34 = getelementptr inbounds nuw i8, ptr %2, i64 36
  %35 = load i32, ptr %34, align 4, !tbaa !24
  %36 = sext i32 %35 to i64
  %37 = getelementptr inbounds ptr, ptr %33, i64 %36
  %38 = load ptr, ptr %37, align 8, !tbaa !25
  %.not24 = icmp eq ptr %38, null
  br i1 %.not24, label %50, label %39

39:                                               ; preds = %Aig_ObjEquiv.exit
  tail call void @Gia_ManFromAig_rec(ptr noundef %0, ptr noundef nonnull %1, ptr noundef nonnull %38)
  %40 = getelementptr inbounds nuw i8, ptr %0, i64 200
  %41 = load ptr, ptr %40, align 8, !tbaa !26
  %.not25 = icmp eq ptr %41, null
  br i1 %.not25, label %50, label %42

42:                                               ; preds = %39
  %43 = getelementptr inbounds nuw i8, ptr %38, i64 40
  %44 = load i32, ptr %43, align 8, !tbaa !3
  %45 = ashr i32 %44, 1
  %46 = load i32, ptr %4, align 8, !tbaa !3
  %47 = ashr i32 %46, 1
  %48 = sext i32 %47 to i64
  %49 = getelementptr inbounds i32, ptr %41, i64 %48
  store i32 %45, ptr %49, align 4, !tbaa !40
  br label %50

50:                                               ; preds = %6, %Aig_ObjEquiv.exit, %42, %39, %3
  ret void
}